; Function Attrs: mustprogress uwtable
define noundef zeroext i1 @_ZN6google8protobuf8internal14ParseNamedEnumEPKNS0_14EnumDescriptorESt17basic_string_viewIcSt11char_traitsIcEEPi(ptr noundef nonnull %descriptor, i64 %name.coerce0, ptr %name.coerce1, ptr nocapture noundef writeonly %value) local_unnamed_addr #4 {
entry:
  %call = tail call noundef ptr @_ZNK6google8protobuf14EnumDescriptor15FindValueByNameESt17basic_string_viewIcSt11char_traitsIcEE(ptr noundef nonnull align 8 dereferenceable(88) %descriptor, i64 %name.coerce0, ptr %name.coerce1)
  %cmp = icmp ne ptr %call, null
  br i1 %cmp, label %if.end, label %return

if.end:                                           ; preds = %entry
  %number_.i = getelementptr inbounds i8, ptr %call, i64 4
  %0 = load i32, ptr %number_.i, align 4
  store i32 %0, ptr %value, align 4
  br label %return

return:                                           ; preds = %entry, %if.end
  ret i1 %cmp
}